; Function Attrs: mustprogress uwtable
define noundef zeroext i1 @_ZN32pxrInternal_v0_24__pxrReserved__16UsdGeomBBoxCache31ComputePointInstanceLocalBoundsERKNS_21UsdGeomPointInstancerEPKlmPNS_8GfBBox3dE(ptr noundef nonnull align 8 dereferenceable(522) %0, ptr noundef nonnull align 8 dereferenceable(24) %1, ptr noundef %2, i64 noundef %3, ptr noundef %4) local_unnamed_addr #0 align 2 personality ptr @__gxx_personality_v0 {
  %6 = alloca i8, align 1
  %7 = alloca %"class.pxrInternal_v0_24__pxrReserved__::GfMatrix4d", align 8
  %8 = alloca %"class.pxrInternal_v0_24__pxrReserved__::UsdPrim", align 8
  store i8 0, ptr %6, align 1
  %9 = getelementptr inbounds nuw i8, ptr %0, i64 400
  %10 = getelementptr inbounds nuw i8, ptr %1, i64 8
  %11 = getelementptr inbounds nuw i8, ptr %1, i64 16
  call void @_ZN32pxrInternal_v0_24__pxrReserved__9UsdObjectC2ERKNS_18Usd_PrimDataHandleERKNS_7SdfPathE(ptr noundef nonnull align 8 dereferenceable(32) %8, ptr noundef nonnull align 8 dereferenceable(8) %10, ptr noundef nonnull align 4 dereferenceable(8) %11)
  invoke void @_ZN32pxrInternal_v0_24__pxrReserved__17UsdGeomXformCache22GetLocalTransformationERKNS_7UsdPrimEPb(ptr dead_on_unwind nonnull writable sret(%"class.pxrInternal_v0_24__pxrReserved__::GfMatrix4d") align 8 %7, ptr noundef nonnull align 8 dereferenceable(64) %9, ptr noundef nonnull align 8 dereferenceable(32) %8, ptr noundef nonnull %6)
          to label %12 unwind label %48

12:                                               ; preds = %5
  %13 = invoke noundef zeroext i1 @_ZN32pxrInternal_v0_24__pxrReserved__16UsdGeomBBoxCache33_ComputePointInstanceBoundsHelperERKNS_21UsdGeomPointInstancerEPKlmRKNS_10GfMatrix4dEPNS_8GfBBox3dE(ptr noundef nonnull align 8 dereferenceable(522) %0, ptr noundef nonnull align 8 dereferenceable(24) %1, ptr noundef %2, i64 noundef %3, ptr noundef nonnull align 8 dereferenceable(128) %7, ptr noundef %4)
          to label %14 unwind label %48

14:                                               ; preds = %12
  %15 = getelementptr inbounds nuw i8, ptr %8, i64 24
  %16 = load ptr, ptr %15, align 8
  %17 = ptrtoint ptr %16 to i64
  %18 = and i64 %17, 7
  %.not.i.i.i.i = icmp eq i64 %18, 0
  br i1 %.not.i.i.i.i, label %_ZN32pxrInternal_v0_24__pxrReserved__7TfTokenD2Ev.exit.i.i, label %19

19:                                               ; preds = %14
  %20 = and i64 %17, -8
  %21 = inttoptr i64 %20 to ptr
  %22 = atomicrmw sub ptr %21, i32 2 release, align 4
  br label %_ZN32pxrInternal_v0_24__pxrReserved__7TfTokenD2Ev.exit.i.i

_ZN32pxrInternal_v0_24__pxrReserved__7TfTokenD2Ev.exit.i.i: ; preds = %19, %14
  %23 = getelementptr inbounds nuw i8, ptr %8, i64 16
  %24 = load i32, ptr %23, align 8
  %.not.i.i1.i.i = icmp eq i32 %24, 0
  br i1 %.not.i.i1.i.i, label %_ZN32pxrInternal_v0_24__pxrReserved__7SdfPathD2Ev.exit.i.i, label %25

25:                                               ; preds = %_ZN32pxrInternal_v0_24__pxrReserved__7TfTokenD2Ev.exit.i.i
  %26 = and i32 %24, 255
  %27 = lshr i32 %24, 8
  %28 = zext nneg i32 %26 to i64
  %29 = getelementptr inbounds nuw [257 x ptr], ptr @_ZN32pxrInternal_v0_24__pxrReserved__8Sdf_PoolINS_15Sdf_PathPrimTagELj24ELj8ELj16384EE13_regionStartsE, i64 0, i64 %28
  %30 = load ptr, ptr %29, align 8
  %31 = mul nuw nsw i32 %27, 24
  %32 = zext nneg i32 %31 to i64
  %33 = getelementptr inbounds nuw i8, ptr %30, i64 %32
  %34 = getelementptr inbounds nuw i8, ptr %33, i64 8
  %35 = atomicrmw sub ptr %34, i32 1 seq_cst, align 4
  %36 = and i32 %35, 2147483647
  %37 = icmp eq i32 %36, 1
  br i1 %37, label %38, label %_ZN32pxrInternal_v0_24__pxrReserved__7SdfPathD2Ev.exit.i.i

38:                                               ; preds = %25
  invoke void @_ZNK32pxrInternal_v0_24__pxrReserved__12Sdf_PathNode8_DestroyEv(ptr noundef nonnull align 8 dereferenceable(16) %33)
          to label %_ZN32pxrInternal_v0_24__pxrReserved__7SdfPathD2Ev.exit.i.i unwind label %39

39:                                               ; preds = %38
  %40 = landingpad { ptr, i32 }
          catch ptr null
  %41 = extractvalue { ptr, i32 } %40, 0
  call void @__clang_call_terminate(ptr %41) #26
  unreachable

_ZN32pxrInternal_v0_24__pxrReserved__7SdfPathD2Ev.exit.i.i: ; preds = %38, %25, %_ZN32pxrInternal_v0_24__pxrReserved__7TfTokenD2Ev.exit.i.i
  %42 = getelementptr inbounds nuw i8, ptr %8, i64 8
  %43 = load ptr, ptr %42, align 8
  %.not.i.i.i.i.i = icmp eq ptr %43, null
  br i1 %.not.i.i.i.i.i, label %_ZN32pxrInternal_v0_24__pxrReserved__7UsdPrimD2Ev.exit, label %44

44:                                               ; preds = %_ZN32pxrInternal_v0_24__pxrReserved__7SdfPathD2Ev.exit.i.i
  %45 = getelementptr inbounds nuw i8, ptr %43, i64 48
  %46 = atomicrmw sub ptr %45, i64 1 release, align 8
  %.not1.i.i.i.i.i = icmp eq i64 %46, 1
  br i1 %.not1.i.i.i.i.i, label %47, label %_ZN32pxrInternal_v0_24__pxrReserved__7UsdPrimD2Ev.exit

47:                                               ; preds = %44
  call void @_ZN32pxrInternal_v0_24__pxrReserved__12Usd_PrimDataD1Ev(ptr noundef nonnull align 8 dereferenceable(64) %43) #15
  call void @_ZdlPvm(ptr noundef nonnull %43, i64 noundef 64) #25
  br label %_ZN32pxrInternal_v0_24__pxrReserved__7UsdPrimD2Ev.exit

_ZN32pxrInternal_v0_24__pxrReserved__7UsdPrimD2Ev.exit: ; preds = %_ZN32pxrInternal_v0_24__pxrReserved__7SdfPathD2Ev.exit.i.i, %44, %47
  ret i1 %13

48:                                               ; preds = %12, %5
  %49 = landingpad { ptr, i32 }
          cleanup
  call void @_ZN32pxrInternal_v0_24__pxrReserved__7UsdPrimD2Ev(ptr noundef nonnull align 8 dereferenceable(32) %8) #15
  resume { ptr, i32 } %49
}